; Function Attrs: mustprogress nofree norecurse nosync nounwind willreturn memory(write, argmem: readwrite, inaccessiblemem: none) uwtable
define dso_local void @_ZN4Luau7CodeGen3X6412ScopedRegX644freeEv(ptr nocapture noundef nonnull align 8 dereferenceable(9) %0) local_unnamed_addr #9 align 2 {
  %2 = load ptr, ptr %0, align 8
  %3 = getelementptr inbounds i8, ptr %0, i64 8
  %.sroa.0.0.copyload = load i8, ptr %3, align 8
  %4 = and i8 %.sroa.0.0.copyload, 7
  %5 = icmp eq i8 %4, 5
  %6 = lshr i8 %.sroa.0.0.copyload, 3
  %7 = zext nneg i8 %6 to i64
  %..i = select i1 %5, i64 108, i64 28
  %.9.i = select i1 %5, i64 124, i64 44
  %8 = getelementptr inbounds i8, ptr %2, i64 %..i
  %9 = getelementptr inbounds [16 x i8], ptr %8, i64 0, i64 %7
  store i8 1, ptr %9, align 1
  %10 = getelementptr inbounds i8, ptr %2, i64 %.9.i
  %11 = getelementptr inbounds [16 x i32], ptr %10, i64 0, i64 %7
  store i32 -1, ptr %11, align 4
  store i8 -128, ptr %3, align 8
  ret void
}